; Function Attrs: nounwind uwtable
define void @Wln_RetFindSources_rec(ptr noundef captures(none) %0, i32 noundef %1) local_unnamed_addr #4 {
  %3 = load ptr, ptr %0, align 8, !tbaa !3
  %4 = getelementptr i8, ptr %3, i64 80
  %.val44 = load ptr, ptr %4, align 8, !tbaa !12
  %5 = sext i32 %1 to i64
  %6 = getelementptr inbounds i32, ptr %.val44, i64 %5
  %7 = load i32, ptr %6, align 4, !tbaa !13
  %.not = icmp eq i32 %7, 3
  br i1 %.not, label %Wln_ObjCheckTravId.exit, label %8

8:                                                ; preds = %2
  %9 = getelementptr i8, ptr %3, i64 176
  %.val45 = load i32, ptr %9, align 8, !tbaa !84
  %10 = getelementptr i8, ptr %3, i64 192
  %.val46 = load ptr, ptr %10, align 8, !tbaa !12
  %11 = getelementptr inbounds i32, ptr %.val46, i64 %5
  %12 = load i32, ptr %11, align 4, !tbaa !13
  %.not.i = icmp eq i32 %12, %.val45
  br i1 %.not.i, label %Wln_ObjCheckTravId.exit, label %13

13:                                               ; preds = %8
  store i32 %.val45, ptr %11, align 4, !tbaa !13
  %14 = getelementptr i8, ptr %0, i64 96
  %.val38 = load ptr, ptr %14, align 8, !tbaa !12
  %15 = getelementptr inbounds i32, ptr %.val38, i64 %5
  %16 = load i32, ptr %15, align 4, !tbaa !13
  %17 = getelementptr i8, ptr %0, i64 80
  %.val37 = load ptr, ptr %17, align 8, !tbaa !12
  %18 = getelementptr inbounds i32, ptr %.val37, i64 %5
  %19 = load i32, ptr %18, align 4, !tbaa !13
  %20 = sub nsw i32 %16, %19
  %21 = getelementptr i8, ptr %3, i64 88
  %.val4050 = load ptr, ptr %21, align 8, !tbaa !14
  %22 = getelementptr inbounds %struct.Wln_Vec_t_, ptr %.val4050, i64 %5, i32 1
  %23 = load i32, ptr %22, align 4, !tbaa !22
  %24 = icmp sgt i32 %23, 0
  br i1 %24, label %.lr.ph, label %.critedge

.lr.ph:                                           ; preds = %13
  %25 = getelementptr i8, ptr %0, i64 16
  br label %26

26:                                               ; preds = %.lr.ph, %50
  %27 = phi ptr [ %3, %.lr.ph ], [ %51, %50 ]
  %indvars.iv = phi i64 [ 0, %.lr.ph ], [ %indvars.iv.next, %50 ]
  %.val4052 = phi ptr [ %.val4050, %.lr.ph ], [ %.val40, %50 ]
  %.val42 = load ptr, ptr %25, align 8, !tbaa !12
  %28 = getelementptr inbounds i32, ptr %.val42, i64 %5
  %29 = load i32, ptr %28, align 4, !tbaa !13
  %30 = sext i32 %29 to i64
  %31 = getelementptr inbounds i32, ptr %.val42, i64 %30
  %.idx = shl nuw nsw i64 %indvars.iv, 3
  %32 = getelementptr inbounds nuw i8, ptr %31, i64 %.idx
  %33 = load i32, ptr %32, align 4, !tbaa !13
  %34 = getelementptr inbounds nuw i8, ptr %32, i64 4
  %.not33 = icmp eq i32 %33, 0
  br i1 %.not33, label %50, label %35

35:                                               ; preds = %26
  %36 = sext i32 %33 to i64
  %37 = getelementptr inbounds %struct.Wln_Vec_t_, ptr %.val4052, i64 %36, i32 1
  %38 = load i32, ptr %37, align 4, !tbaa !22
  %.not34 = icmp eq i32 %38, 0
  br i1 %.not34, label %39, label %43

39:                                               ; preds = %35
  %40 = getelementptr i8, ptr %27, i64 80
  %.val43 = load ptr, ptr %40, align 8, !tbaa !12
  %41 = getelementptr inbounds i32, ptr %.val43, i64 %36
  %42 = load i32, ptr %41, align 4, !tbaa !13
  %.not49 = icmp eq i32 %42, 3
  br i1 %.not49, label %43, label %50

43:                                               ; preds = %39, %35
  %44 = load i32, ptr %34, align 4, !tbaa !13
  %.not36 = icmp eq i32 %44, 0
  br i1 %.not36, label %45, label %50

45:                                               ; preds = %43
  %.val = load ptr, ptr %14, align 8, !tbaa !12
  %46 = getelementptr inbounds i32, ptr %.val, i64 %36
  %47 = load i32, ptr %46, align 4, !tbaa !13
  %48 = icmp eq i32 %47, %20
  br i1 %48, label %49, label %50

49:                                               ; preds = %45
  tail call void @Wln_RetFindSources_rec(ptr noundef nonnull %0, i32 noundef %33)
  %.pre = load ptr, ptr %0, align 8, !tbaa !3
  br label %50

50:                                               ; preds = %39, %26, %49, %45, %43
  %51 = phi ptr [ %27, %39 ], [ %27, %26 ], [ %.pre, %49 ], [ %27, %45 ], [ %27, %43 ]
  %indvars.iv.next = add nuw nsw i64 %indvars.iv, 1
  %52 = getelementptr i8, ptr %51, i64 88
  %.val40 = load ptr, ptr %52, align 8, !tbaa !14
  %53 = getelementptr inbounds %struct.Wln_Vec_t_, ptr %.val40, i64 %5, i32 1
  %54 = load i32, ptr %53, align 4, !tbaa !22
  %55 = sext i32 %54 to i64
  %56 = icmp slt i64 %indvars.iv.next, %55
  br i1 %56, label %26, label %.critedge, !llvm.loop !85

.critedge:                                        ; preds = %50, %13
  %57 = icmp eq i32 %16, %19
  br i1 %57, label %58, label %Wln_ObjCheckTravId.exit

58:                                               ; preds = %.critedge
  %59 = getelementptr inbounds nuw i8, ptr %0, i64 104
  %60 = getelementptr inbounds nuw i8, ptr %0, i64 108
  %61 = load i32, ptr %60, align 4, !tbaa !26
  %62 = load i32, ptr %59, align 8, !tbaa !33
  %63 = icmp eq i32 %61, %62
  br i1 %63, label %64, label %.Vec_IntGrow.exit10_crit_edge.i

.Vec_IntGrow.exit10_crit_edge.i:                  ; preds = %58
  %.phi.trans.insert.i = getelementptr inbounds nuw i8, ptr %0, i64 112
  %.pre.i = load ptr, ptr %.phi.trans.insert.i, align 8, !tbaa !12
  br label %Vec_IntPush.exit

64:                                               ; preds = %58
  %65 = icmp slt i32 %61, 16
  br i1 %65, label %66, label %74

66:                                               ; preds = %64
  %67 = getelementptr inbounds nuw i8, ptr %0, i64 112
  %68 = load ptr, ptr %67, align 8, !tbaa !12
  %.not9.i.i = icmp eq ptr %68, null
  br i1 %.not9.i.i, label %71, label %69

69:                                               ; preds = %66
  %70 = tail call dereferenceable_or_null(64) ptr @realloc(ptr noundef nonnull %68, i64 noundef 64) #24
  br label %Vec_IntGrow.exit.i

71:                                               ; preds = %66
  %72 = tail call noalias dereferenceable_or_null(64) ptr @malloc(i64 noundef 64) #23
  br label %Vec_IntGrow.exit.i

Vec_IntGrow.exit.i:                               ; preds = %71, %69
  %73 = phi ptr [ %70, %69 ], [ %72, %71 ]
  store ptr %73, ptr %67, align 8, !tbaa !12
  store i32 16, ptr %59, align 8, !tbaa !33
  br label %Vec_IntPush.exit

74:                                               ; preds = %64
  %75 = shl nuw nsw i32 %61, 1
  %76 = getelementptr inbounds nuw i8, ptr %0, i64 112
  %77 = load ptr, ptr %76, align 8, !tbaa !12
  %.not9.i9.i = icmp eq ptr %77, null
  %78 = zext nneg i32 %75 to i64
  %79 = shl nuw nsw i64 %78, 2
  br i1 %.not9.i9.i, label %82, label %80

80:                                               ; preds = %74
  %81 = tail call ptr @realloc(ptr noundef nonnull %77, i64 noundef %79) #24
  br label %84

82:                                               ; preds = %74
  %83 = tail call noalias ptr @malloc(i64 noundef %79) #23
  br label %84

84:                                               ; preds = %82, %80
  %85 = phi ptr [ %81, %80 ], [ %83, %82 ]
  store ptr %85, ptr %76, align 8, !tbaa !12
  store i32 %75, ptr %59, align 8, !tbaa !33
  br label %Vec_IntPush.exit

Vec_IntPush.exit:                                 ; preds = %.Vec_IntGrow.exit10_crit_edge.i, %Vec_IntGrow.exit.i, %84
  %86 = phi ptr [ %.pre.i, %.Vec_IntGrow.exit10_crit_edge.i ], [ %85, %84 ], [ %73, %Vec_IntGrow.exit.i ]
  %87 = load i32, ptr %60, align 4, !tbaa !26
  %88 = add nsw i32 %87, 1
  store i32 %88, ptr %60, align 4, !tbaa !26
  %89 = sext i32 %87 to i64
  %90 = getelementptr inbounds i32, ptr %86, i64 %89
  store i32 %1, ptr %90, align 4, !tbaa !13
  br label %Wln_ObjCheckTravId.exit

Wln_ObjCheckTravId.exit:                          ; preds = %8, %.critedge, %Vec_IntPush.exit, %2
  ret void
}